(ikeras_frcnn.config
Config
p0
(dp1
S'use_vertical_flips'
p2
I00
sS'verbose'
p3
I01
sS'classifier_regr_std'
p4
(lp5
F8.0
aF8.0
aF4.0
aF4.0
asS'classifier_min_overlap'
p6
F0.1
sS'rot_90'
p7
I00
sS'class_mapping'
p8
(dp9
S'bg'
p10
I10
sS'1'
p11
I1
sS'0'
p12
I0
sS'3'
p13
I3
sS'2'
p14
I2
sS'5'
p15
I5
sS'4'
p16
I4
sS'7'
p17
I7
sS'6'
p18
I6
sS'9'
p19
I9
sS'8'
p20
I8
ssS'use_horizontal_flips'
p21
I00
sS'rpn_max_overlap'
p22
F0.7
sS'network'
p23
S'resnet50'
p24
sS'img_channel_mean'
p25
(lp26
F103.939
aF116.779
aF123.68
asS'balanced_classes'
p27
I00
sS'anchor_box_ratios'
p28
(lp29
(lp30
I1
aI1
aa(lp31
F0.7071067811865475
aF1.414213562373095
aa(lp32
F1.414213562373095
aF0.7071067811865475
aasS'img_scaling_factor'
p33
F1.0
sS'rpn_stride'
p34
I16
sS'num_rois'
p35
I32
sS'base_net_weights'
p36
S'resnet50_weights_tf_dim_ordering_tf_kernels.h5'
p37
sS'anchor_box_scales'
p38
(lp39
I32
aI64
aI128
asS'rpn_min_overlap'
p40
F0.3
sS'model_path'
p41
S'./model_frcnn.hdf5'
p42
sS'classifier_max_overlap'
p43
F0.5
sS'std_scaling'
p44
F4.0
sS'im_size'
p45
I120
sb.